Certificate:
    Data:
        Version: 3 (0x2)
        Serial Number:
            01:e6:ed:6a:48:c2:5f:d5:bf:d0:6f:a7:c7:86:ea:bf
    Signature Algorithm: sha256WithRSAEncryption
        Issuer: C=RU, ST=Moscow State, O=BMSTU, OU=IU4-XX, CN=Agent Smith
        Validity
            Not Before: Dec 11 14:58:01 2021 GMT
            Not After : Dec 11 14:58:01 2022 GMT
        Subject: C=RU, ST=Moscow State, O=BMSTU, OU=IU4-XX, CN=Agent Smith
        Subject Public Key Info:
            Public Key Algorithm: rsaEncryption
                Public-Key: (4096 bit)
                Modulus:
                    00:ad:84:e4:fd:76:e0:f4:4e:6a:90:3e:39:9d:52:
                    2f:97:2f:93:8e:bb:80:7e:ea:3a:be:8e:3a:56:3b:
                    4e:ca:a8:3e:04:6b:67:1b:fe:53:d8:f5:e4:ea:2e:
                    72:5d:41:56:95:2b:fd:0a:4c:6c:5d:fc:00:3c:55:
                    b5:f4:8f:07:7d:64:f7:43:06:37:4b:53:1d:bb:04:
                    65:bd:af:34:41:64:c2:bb:6e:4f:ff:f2:22:22:11:
                    53:71:13:b4:16:8c:2d:54:77:db:11:f3:58:b0:31:
                    2d:9d:1d:ed:a7:4c:a0:a0:ba:8d:dc:a1:47:98:47:
                    bf:88:74:be:d5:a9:a4:b5:1e:c7:fe:f0:a1:09:49:
                    5f:f7:7c:d7:cc:15:1b:4a:07:4a:64:bf:95:58:be:
                    73:6a:72:bd:70:52:d9:20:1d:02:c2:cf:fe:86:cf:
                    75:72:d3:6b:2c:6b:72:77:6c:d5:fd:1e:1a:70:7a:
                    1d:9f:4b:d4:51:9d:4e:68:d5:6b:67:26:50:39:8f:
                    73:a8:af:f0:e8:d3:f7:fd:53:36:d5:a4:0c:2a:14:
                    16:23:6f:57:95:4d:7a:92:45:98:71:ea:be:98:cb:
                    06:5e:15:c8:d6:f7:cd:07:9e:1c:13:6f:4b:9c:98:
                    43:7c:be:66:7f:cd:6a:59:12:a9:6b:0e:03:9f:a7:
                    aa:54:23:1c:65:a9:da:7a:c2:21:e9:ab:ca:8b:7a:
                    41:08:54:5d:5b:c5:ad:9f:d4:7c:23:ba:44:0f:63:
                    c6:7c:99:ba:11:f4:f2:63:d7:c9:48:dc:37:52:51:
                    c4:7b:2d:a6:7d:4a:15:fd:15:44:e4:29:a9:b8:08:
                    ec:de:17:f8:56:55:b2:a1:78:09:88:81:9e:14:d0:
                    71:53:c6:58:fb:e5:4d:4b:1c:be:40:eb:40:31:20:
                    5d:c9:c0:08:e5:4c:03:88:0e:1b:de:bf:a2:03:e2:
                    43:86:0b:d9:4a:6e:8c:f4:12:9e:69:8e:0d:4d:27:
                    dc:27:a8:21:48:e0:3d:6d:aa:fd:b4:f9:ab:1e:85:
                    8b:14:ad:21:93:2f:8e:64:40:c7:10:49:3b:13:8e:
                    b6:a3:44:2e:bb:b7:79:7a:c9:9e:ae:ef:1c:a2:65:
                    3f:2d:af:92:98:67:cb:96:24:b9:bb:da:ff:40:2b:
                    96:c2:dd:11:b2:51:c6:15:0a:db:b4:e8:5e:48:d9:
                    16:78:c6:16:e5:e1:8f:a1:ab:fa:01:d3:52:fd:bf:
                    0d:e8:24:38:9a:35:e0:b8:65:b7:a6:5f:07:21:c6:
                    04:09:33:f9:9b:7b:eb:68:02:4f:b1:1d:27:a3:27:
                    62:cb:f4:93:43:68:c4:ea:e6:f2:2c:bd:83:3a:2a:
                    73:66:19
                Exponent: 65537 (0x10001)
        X509v3 extensions:
            X509v3 Authority Key Identifier: 
                DirName:/C=RU/ST=Moscow State/O=BMSTU/OU=IU4-XX/CN=Agent Smith
                serial:01:E6:ED:6A:48:C2:5F:D5:BF:D0:6F:A7:C7:86:EA:BF

            X509v3 Basic Constraints: critical
                CA:TRUE
            X509v3 Key Usage: critical
                Certificate Sign, CRL Sign
            X509v3 Subject Key Identifier: 
                EE:39:C5:31:4F:D4:79:2D:87:B3:01:93:13:D9:E5:77:06:EE:95:CB
    Signature Algorithm: sha256WithRSAEncryption
         4d:77:74:4e:00:73:26:b2:5c:df:38:a8:40:45:73:da:10:db:
         f7:88:49:02:e2:99:2c:53:a3:f0:c3:2b:60:3f:90:69:5f:e0:
         ce:ba:c7:9d:2a:5e:26:ec:3c:2c:1e:1f:fb:40:52:40:23:f0:
         74:fc:90:a2:d2:d6:59:8c:59:7c:d1:8e:e7:e2:38:5c:bc:6f:
         a7:fc:42:02:78:e3:88:f7:52:fa:b3:c2:7b:fd:bf:51:6b:84:
         e3:bc:18:79:66:34:44:5f:2b:a4:6d:22:ba:fc:07:e6:89:47:
         c1:4a:b3:2e:cc:64:a9:9a:ed:b0:28:a5:1c:e6:94:3f:22:e0:
         d5:9d:5f:55:fd:73:23:2f:86:b7:07:6b:36:11:5f:0a:54:51:
         60:1e:59:f8:ee:ed:de:ec:93:64:4b:7f:32:94:d2:9f:f7:b9:
         e1:0a:39:09:eb:75:53:27:5d:22:94:00:24:dc:14:bf:57:9f:
         7a:45:5b:95:f6:b9:f5:58:d9:b6:25:3a:1e:68:67:ed:ca:89:
         27:43:9b:c6:14:09:99:fd:e1:04:27:8d:b3:01:d5:1d:04:69:
         c2:5d:95:fb:00:a4:74:2d:cb:96:7b:ac:31:69:30:1f:22:59:
         ca:e0:a1:25:97:2f:bc:e0:16:40:50:e3:6a:b5:7c:8d:24:1d:
         9e:1b:d4:cd:71:f0:21:c3:2c:18:6b:0e:7d:ec:9e:24:fc:f5:
         44:86:84:e7:15:68:86:17:b1:58:af:65:d1:fa:c3:dd:d3:dd:
         56:48:bf:a9:e5:67:cf:f7:47:0f:6c:72:33:ad:01:98:c8:5e:
         0f:fd:27:d7:cd:88:49:b7:a0:39:dc:09:5b:90:1c:ff:b5:1f:
         d1:c6:b0:80:35:d0:27:ad:89:ad:65:23:e9:95:20:c0:25:4c:
         a6:92:43:fd:55:81:cd:1b:de:06:60:ca:36:59:3a:e5:66:b9:
         19:bc:f8:c6:38:2c:e8:65:1a:6b:9b:66:ec:66:67:63:e0:9c:
         a6:04:f7:9f:b3:5f:85:27:a2:77:b9:6a:e5:c8:d6:a8:7f:90:
         e3:80:ef:09:32:33:46:3b:dc:14:79:ca:2d:a9:a3:bb:2e:a0:
         51:ff:0e:bf:c1:07:69:4f:d1:e1:ff:5a:0e:3a:9f:56:61:a7:
         1b:6c:26:73:89:66:f0:29:95:f2:48:7a:f7:a3:ad:c4:c6:92:
         42:60:c9:1f:61:77:01:8a:11:d0:f0:01:d6:2b:10:7a:b1:65:
         fc:af:f6:9f:0b:b6:a3:3e:11:64:87:84:7b:e3:4d:b0:ba:cf:
         25:17:e9:e7:29:c3:0d:59:93:f7:30:ee:27:f9:26:56:36:40:
         0a:ee:d1:18:2f:fa:66:74
-----BEGIN CERTIFICATE-----
MIIGAjCCA+qgAwIBAgIQAebtakjCX9W/0G+nx4bqvzANBgkqhkiG9w0BAQsFADBb
MQswCQYDVQQGEwJSVTEVMBMGA1UECAwMTW9zY293IFN0YXRlMQ4wDAYDVQQKDAVC
TVNUVTEPMA0GA1UECwwGSVU0LVhYMRQwEgYDVQQDDAtBZ2VudCBTbWl0aDAeFw0y
MTEyMTExNDU4MDFaFw0yMjEyMTExNDU4MDFaMFsxCzAJBgNVBAYTAlJVMRUwEwYD
VQQIDAxNb3Njb3cgU3RhdGUxDjAMBgNVBAoMBUJNU1RVMQ8wDQYDVQQLDAZJVTQt
WFgxFDASBgNVBAMMC0FnZW50IFNtaXRoMIICIjANBgkqhkiG9w0BAQEFAAOCAg8A
MIICCgKCAgEArYTk/Xbg9E5qkD45nVIvly+TjruAfuo6vo46VjtOyqg+BGtnG/5T
2PXk6i5yXUFWlSv9CkxsXfwAPFW19I8HfWT3QwY3S1MduwRlva80QWTCu25P//Ii
IhFTcRO0FowtVHfbEfNYsDEtnR3tp0ygoLqN3KFHmEe/iHS+1amktR7H/vChCUlf
93zXzBUbSgdKZL+VWL5zanK9cFLZIB0Cws/+hs91ctNrLGtyd2zV/R4acHodn0vU
UZ1OaNVrZyZQOY9zqK/w6NP3/VM21aQMKhQWI29XlU16kkWYceq+mMsGXhXI1vfN
B54cE29LnJhDfL5mf81qWRKpaw4Dn6eqVCMcZanaesIh6avKi3pBCFRdW8Wtn9R8
I7pED2PGfJm6EfTyY9fJSNw3UlHEey2mfUoV/RVE5CmpuAjs3hf4VlWyoXgJiIGe
FNBxU8ZY++VNSxy+QOtAMSBdycAI5UwDiA4b3r+iA+JDhgvZSm6M9BKeaY4NTSfc
J6ghSOA9bar9tPmrHoWLFK0hky+OZEDHEEk7E462o0Quu7d5esmeru8comU/La+S
mGfLliS5u9r/QCuWwt0RslHGFQrbtOheSNkWeMYW5eGPoav6AdNS/b8N6CQ4mjXg
uGW3pl8HIcYECTP5m3vraAJPsR0noydiy/STQ2jE6ubyLL2DOipzZhkCAwEAAaOB
wTCBvjB8BgNVHSMEdTBzoV+kXTBbMQswCQYDVQQGEwJSVTEVMBMGA1UECAwMTW9z
Y293IFN0YXRlMQ4wDAYDVQQKDAVCTVNUVTEPMA0GA1UECwwGSVU0LVhYMRQwEgYD
VQQDDAtBZ2VudCBTbWl0aIIQAebtakjCX9W/0G+nx4bqvzAPBgNVHRMBAf8EBTAD
AQH/MA4GA1UdDwEB/wQEAwIBBjAdBgNVHQ4EFgQU7jnFMU/UeS2HswGTE9nldwbu
lcswDQYJKoZIhvcNAQELBQADggIBAE13dE4AcyayXN84qEBFc9oQ2/eISQLimSxT
o/DDK2A/kGlf4M66x50qXibsPCweH/tAUkAj8HT8kKLS1lmMWXzRjufiOFy8b6f8
QgJ444j3Uvqzwnv9v1FrhOO8GHlmNERfK6RtIrr8B+aJR8FKsy7MZKma7bAopRzm
lD8i4NWdX1X9cyMvhrcHazYRXwpUUWAeWfju7d7sk2RLfzKU0p/3ueEKOQnrdVMn
XSKUACTcFL9Xn3pFW5X2ufVY2bYlOh5oZ+3KiSdDm8YUCZn94QQnjbMB1R0EacJd
lfsApHQty5Z7rDFpMB8iWcrgoSWXL7zgFkBQ42q1fI0kHZ4b1M1x8CHDLBhrDn3s
niT89USGhOcVaIYXsVivZdH6w93T3VZIv6nlZ8/3Rw9scjOtAZjIXg/9J9fNiEm3
oDncCVuQHP+1H9HGsIA10Cetia1lI+mVIMAlTKaSQ/1Vgc0b3gZgyjZZOuVmuRm8
+MY4LOhlGmubZuxmZ2PgnKYE95+zX4Unone5auXI1qh/kOOA7wkyM0Y73BR5yi2p
o7suoFH/Dr/BB2lP0eH/Wg46n1ZhpxtsJnOJZvAplfJIevejrcTGkkJgyR9hdwGK
EdDwAdYrEHqxZfyv9p8LtqM+EWSHhHvjTbC6zyUX6ecpww1Zk/cw7if5JlY2QAru
0Rgv+mZ0
-----END CERTIFICATE-----
